ccopy_reg
_reconstructor
p0
(csklearn.linear_model.ridge
Ridge
p1
c__builtin__
object
p2
Ntp3
Rp4
(dp5
S'normalize'
p6
I00
sS'fit_intercept'
p7
I01
sS'solver'
p8
S'auto'
p9
sS'max_iter'
p10
NsS'n_iter_'
p11
NsS'random_state'
p12
NsS'_sklearn_version'
p13
S'0.19.1'
p14
sS'tol'
p15
F0.001
sS'copy_X'
p16
I01
sS'alpha'
p17
F1.0
sS'coef_'
p18
cnumpy.core.multiarray
_reconstruct
p19
(cnumpy
ndarray
p20
(I0
tp21
S'b'
p22
tp23
Rp24
(I1
(I6
tp25
cnumpy
dtype
p26
(S'f8'
p27
I0
I1
tp28
Rp29
(I3
S'<'
p30
NNNI-1
I-1
I0
tp31
bI00
S'\xfa\xd92\xdc\xa1\x0e6\xbf\x06\x8f\x9f\x90?\xf3\xee\xbf\x1c\xdb5\xc9\x95\n4\xbf$I*\xf56\x86<?,(\xc6\x11\xcb\x8d\xf3?z\x0bd\x00\xceld\xbf'
p32
tp33
bsS'intercept_'
p34
cnumpy.core.multiarray
scalar
p35
(g29
S'y@}\x04\xf7\xb6\x02@'
p36
tp37
Rp38
sb.